; Function Attrs: mustprogress nounwind uwtable
define dso_local void @_ZNSt3__18ios_baseD2Ev(ptr noundef nonnull align 8 dereferenceable(136) initializes((0, 8)) %0) unnamed_addr #6 align 2 personality ptr @__gxx_personality_v0 {
  store ptr getelementptr inbounds nuw inrange(-16, 16) (i8, ptr @_ZTVNSt3__18ios_baseE, i64 16), ptr %0, align 8, !tbaa !13
  %2 = getelementptr inbounds nuw i8, ptr %0, i64 48
  %3 = load ptr, ptr %2, align 8, !tbaa !36
  %.not = icmp eq ptr %3, null
  br i1 %.not, label %25, label %4

4:                                                ; preds = %1
  %5 = getelementptr inbounds nuw i8, ptr %0, i64 72
  %6 = load i64, ptr %5, align 8, !tbaa !15
  %.not5.i = icmp eq i64 %6, 0
  br i1 %.not5.i, label %_ZNSt3__18ios_base16__call_callbacksENS0_5eventE.exit, label %.lr.ph.i

.lr.ph.i:                                         ; preds = %4
  %7 = getelementptr inbounds nuw i8, ptr %0, i64 56
  %8 = getelementptr inbounds nuw i8, ptr %0, i64 64
  br label %9

9:                                                ; preds = %.noexc, %.lr.ph.i
  %.06.i = phi i64 [ %6, %.lr.ph.i ], [ %10, %.noexc ]
  %10 = add i64 %.06.i, -1
  %11 = load ptr, ptr %7, align 8, !tbaa !21
  %12 = getelementptr inbounds nuw ptr, ptr %11, i64 %10
  %13 = load ptr, ptr %12, align 8, !tbaa !22
  %14 = load ptr, ptr %8, align 8, !tbaa !23
  %15 = getelementptr inbounds nuw i32, ptr %14, i64 %10
  %16 = load i32, ptr %15, align 4, !tbaa !8
  invoke void %13(i32 noundef 0, ptr noundef nonnull align 8 dereferenceable(136) %0, i32 noundef %16)
          to label %.noexc unwind label %26

.noexc:                                           ; preds = %9
  %.not.i = icmp eq i64 %10, 0
  br i1 %.not.i, label %_ZNSt3__18ios_base16__call_callbacksENS0_5eventE.exit, label %9, !llvm.loop !24

_ZNSt3__18ios_base16__call_callbacksENS0_5eventE.exit: ; preds = %.noexc, %4
  tail call void @_ZNSt3__16localeD1Ev(ptr noundef nonnull align 8 dereferenceable(8) %2) #25
  %17 = getelementptr inbounds nuw i8, ptr %0, i64 56
  %18 = load ptr, ptr %17, align 8, !tbaa !21
  tail call void @free(ptr noundef %18) #25
  %19 = getelementptr inbounds nuw i8, ptr %0, i64 64
  %20 = load ptr, ptr %19, align 8, !tbaa !23
  tail call void @free(ptr noundef %20) #25
  %21 = getelementptr inbounds nuw i8, ptr %0, i64 88
  %22 = load ptr, ptr %21, align 8, !tbaa !28
  tail call void @free(ptr noundef %22) #25
  %23 = getelementptr inbounds nuw i8, ptr %0, i64 112
  %24 = load ptr, ptr %23, align 8, !tbaa !33
  tail call void @free(ptr noundef %24) #25
  br label %25

25:                                               ; preds = %1, %_ZNSt3__18ios_base16__call_callbacksENS0_5eventE.exit
  ret void

26:                                               ; preds = %9
  %27 = landingpad { ptr, i32 }
          catch ptr null
  %28 = extractvalue { ptr, i32 } %27, 0
  tail call void @__clang_call_terminate(ptr %28) #29
  unreachable
}